(dp0
I0
(lp1
I2
aI1
aI0
asI1
(lp2
I3
aI5
aI4
asI2
(lp3
I23
aI18
aI14
aI19
aI21
aI15
aI16
aI17
aI20
aI27
aI28
aI30
aI29
aI24
aI22
aI25
aI31
aI26
aI6
aI10
aI7
aI11
aI12
aI13
aI9
aI8
aI36
aI37
aI35
aI34
aI32
aI33
asI3
(lp4
I38
aI39
asI4
(lp5
I40
asI5
(lp6
I43
aI42
aI41
asI6
(lp7
I44
asI7
(lp8
I45
aI48
aI49
aI51
aI50
aI47
aI46
as.