(dp0
I0
(lp1
I4
aI35
asI1
(lp2
I12
asI2
(lp3
I14
asI3
(lp4
I15
asI4
(lp5
I16
asI5
(lp6
I33
aI29
aI30
aI3
aI2
aI7
aI11
aI13
aI5
aI32
aI18
aI17
aI24
aI0
aI41
aI1
aI23
aI26
aI6
aI28
aI9
aI34
aI19
aI10
asI6
(lp7
I43
aI37
asI7
(lp8
I46
aI42
aI20
aI21
aI22
aI31
aI39
aI45
aI38
aI44
aI40
aI36
aI48
aI27
aI25
aI49
asI8
(lp9
I47
aI8
asI9
(lp10
I50
as.